   1              		.syntax unified
   2              		.cpu cortex-m7
   3              		.eabi_attribute 28, 1
   4              		.fpu fpv5-d16
   5              		.eabi_attribute 20, 1
   6              		.eabi_attribute 21, 1
   7              		.eabi_attribute 23, 3
   8              		.eabi_attribute 24, 1
   9              		.eabi_attribute 25, 1
  10              		.eabi_attribute 26, 1
  11              		.eabi_attribute 30, 2
  12              		.eabi_attribute 34, 1
  13              		.eabi_attribute 18, 4
  14              		.thumb
  15              		.syntax unified
  16              		.file	"mixer.cpp"
  17              		.text
  18              	.Ltext0:
  19              		.cfi_sections	.debug_frame
  20              		.section	.text._ZN11AudioMixer46updateEv,"ax",%progbits
  21              		.align	2
  22              		.global	_ZN11AudioMixer46updateEv
  23              		.thumb
  24              		.thumb_func
  26              	_ZN11AudioMixer46updateEv:
  27              	.LFB470:
  28              		.file 1 "C:\\users\\brian\\.platformio\\packages\\framework-arduinoteensy\\libraries\\Audio\\mixer
   1:C:\users\brian\.platformio\packages\framework-arduinoteensy\libraries\Audio\mixer.cpp **** /* Audio Library for Teensy 3.X
   2:C:\users\brian\.platformio\packages\framework-arduinoteensy\libraries\Audio\mixer.cpp ****  * Copyright (c) 2014, Paul Stoffregen, paul@pjrc.com
   3:C:\users\brian\.platformio\packages\framework-arduinoteensy\libraries\Audio\mixer.cpp ****  *
   4:C:\users\brian\.platformio\packages\framework-arduinoteensy\libraries\Audio\mixer.cpp ****  * Development of this audio library was funded by PJRC.COM, LLC by sales of
   5:C:\users\brian\.platformio\packages\framework-arduinoteensy\libraries\Audio\mixer.cpp ****  * Teensy and Audio Adaptor boards.  Please support PJRC's efforts to develop
   6:C:\users\brian\.platformio\packages\framework-arduinoteensy\libraries\Audio\mixer.cpp ****  * open source software by purchasing Teensy or other PJRC products.
   7:C:\users\brian\.platformio\packages\framework-arduinoteensy\libraries\Audio\mixer.cpp ****  *
   8:C:\users\brian\.platformio\packages\framework-arduinoteensy\libraries\Audio\mixer.cpp ****  * Permission is hereby granted, free of charge, to any person obtaining a copy
   9:C:\users\brian\.platformio\packages\framework-arduinoteensy\libraries\Audio\mixer.cpp ****  * of this software and associated documentation files (the "Software"), to deal
  10:C:\users\brian\.platformio\packages\framework-arduinoteensy\libraries\Audio\mixer.cpp ****  * in the Software without restriction, including without limitation the rights
  11:C:\users\brian\.platformio\packages\framework-arduinoteensy\libraries\Audio\mixer.cpp ****  * to use, copy, modify, merge, publish, distribute, sublicense, and/or sell
  12:C:\users\brian\.platformio\packages\framework-arduinoteensy\libraries\Audio\mixer.cpp ****  * copies of the Software, and to permit persons to whom the Software is
  13:C:\users\brian\.platformio\packages\framework-arduinoteensy\libraries\Audio\mixer.cpp ****  * furnished to do so, subject to the following conditions:
  14:C:\users\brian\.platformio\packages\framework-arduinoteensy\libraries\Audio\mixer.cpp ****  *
  15:C:\users\brian\.platformio\packages\framework-arduinoteensy\libraries\Audio\mixer.cpp ****  * The above copyright notice, development funding notice, and this permission
  16:C:\users\brian\.platformio\packages\framework-arduinoteensy\libraries\Audio\mixer.cpp ****  * notice shall be included in all copies or substantial portions of the Software.
  17:C:\users\brian\.platformio\packages\framework-arduinoteensy\libraries\Audio\mixer.cpp ****  *
  18:C:\users\brian\.platformio\packages\framework-arduinoteensy\libraries\Audio\mixer.cpp ****  * THE SOFTWARE IS PROVIDED "AS IS", WITHOUT WARRANTY OF ANY KIND, EXPRESS OR
  19:C:\users\brian\.platformio\packages\framework-arduinoteensy\libraries\Audio\mixer.cpp ****  * IMPLIED, INCLUDING BUT NOT LIMITED TO THE WARRANTIES OF MERCHANTABILITY,
  20:C:\users\brian\.platformio\packages\framework-arduinoteensy\libraries\Audio\mixer.cpp ****  * FITNESS FOR A PARTICULAR PURPOSE AND NONINFRINGEMENT. IN NO EVENT SHALL THE
  21:C:\users\brian\.platformio\packages\framework-arduinoteensy\libraries\Audio\mixer.cpp ****  * AUTHORS OR COPYRIGHT HOLDERS BE LIABLE FOR ANY CLAIM, DAMAGES OR OTHER
  22:C:\users\brian\.platformio\packages\framework-arduinoteensy\libraries\Audio\mixer.cpp ****  * LIABILITY, WHETHER IN AN ACTION OF CONTRACT, TORT OR OTHERWISE, ARISING FROM,
  23:C:\users\brian\.platformio\packages\framework-arduinoteensy\libraries\Audio\mixer.cpp ****  * OUT OF OR IN CONNECTION WITH THE SOFTWARE OR THE USE OR OTHER DEALINGS IN
  24:C:\users\brian\.platformio\packages\framework-arduinoteensy\libraries\Audio\mixer.cpp ****  * THE SOFTWARE.
  25:C:\users\brian\.platformio\packages\framework-arduinoteensy\libraries\Audio\mixer.cpp ****  */
  26:C:\users\brian\.platformio\packages\framework-arduinoteensy\libraries\Audio\mixer.cpp **** 
  27:C:\users\brian\.platformio\packages\framework-arduinoteensy\libraries\Audio\mixer.cpp **** #include <Arduino.h>
  28:C:\users\brian\.platformio\packages\framework-arduinoteensy\libraries\Audio\mixer.cpp **** #include "mixer.h"
  29:C:\users\brian\.platformio\packages\framework-arduinoteensy\libraries\Audio\mixer.cpp **** #include "utility/dspinst.h"
  30:C:\users\brian\.platformio\packages\framework-arduinoteensy\libraries\Audio\mixer.cpp **** 
  31:C:\users\brian\.platformio\packages\framework-arduinoteensy\libraries\Audio\mixer.cpp **** #if defined(__ARM_ARCH_7EM__)
  32:C:\users\brian\.platformio\packages\framework-arduinoteensy\libraries\Audio\mixer.cpp **** #define MULTI_UNITYGAIN 65536
  33:C:\users\brian\.platformio\packages\framework-arduinoteensy\libraries\Audio\mixer.cpp **** 
  34:C:\users\brian\.platformio\packages\framework-arduinoteensy\libraries\Audio\mixer.cpp **** static void applyGain(int16_t *data, int32_t mult)
  35:C:\users\brian\.platformio\packages\framework-arduinoteensy\libraries\Audio\mixer.cpp **** {
  36:C:\users\brian\.platformio\packages\framework-arduinoteensy\libraries\Audio\mixer.cpp **** 	uint32_t *p = (uint32_t *)data;
  37:C:\users\brian\.platformio\packages\framework-arduinoteensy\libraries\Audio\mixer.cpp **** 	const uint32_t *end = (uint32_t *)(data + AUDIO_BLOCK_SAMPLES);
  38:C:\users\brian\.platformio\packages\framework-arduinoteensy\libraries\Audio\mixer.cpp **** 
  39:C:\users\brian\.platformio\packages\framework-arduinoteensy\libraries\Audio\mixer.cpp **** 	do {
  40:C:\users\brian\.platformio\packages\framework-arduinoteensy\libraries\Audio\mixer.cpp **** 		uint32_t tmp32 = *p; // read 2 samples from *data
  41:C:\users\brian\.platformio\packages\framework-arduinoteensy\libraries\Audio\mixer.cpp **** 		int32_t val1 = signed_multiply_32x16b(mult, tmp32);
  42:C:\users\brian\.platformio\packages\framework-arduinoteensy\libraries\Audio\mixer.cpp **** 		int32_t val2 = signed_multiply_32x16t(mult, tmp32);
  43:C:\users\brian\.platformio\packages\framework-arduinoteensy\libraries\Audio\mixer.cpp **** 		val1 = signed_saturate_rshift(val1, 16, 0);
  44:C:\users\brian\.platformio\packages\framework-arduinoteensy\libraries\Audio\mixer.cpp **** 		val2 = signed_saturate_rshift(val2, 16, 0);
  45:C:\users\brian\.platformio\packages\framework-arduinoteensy\libraries\Audio\mixer.cpp **** 		*p++ = pack_16b_16b(val2, val1);
  46:C:\users\brian\.platformio\packages\framework-arduinoteensy\libraries\Audio\mixer.cpp **** 	} while (p < end);
  47:C:\users\brian\.platformio\packages\framework-arduinoteensy\libraries\Audio\mixer.cpp **** }
  48:C:\users\brian\.platformio\packages\framework-arduinoteensy\libraries\Audio\mixer.cpp **** 
  49:C:\users\brian\.platformio\packages\framework-arduinoteensy\libraries\Audio\mixer.cpp **** static void applyGainThenAdd(int16_t *data, const int16_t *in, int32_t mult)
  50:C:\users\brian\.platformio\packages\framework-arduinoteensy\libraries\Audio\mixer.cpp **** {
  51:C:\users\brian\.platformio\packages\framework-arduinoteensy\libraries\Audio\mixer.cpp **** 	uint32_t *dst = (uint32_t *)data;
  52:C:\users\brian\.platformio\packages\framework-arduinoteensy\libraries\Audio\mixer.cpp **** 	const uint32_t *src = (uint32_t *)in;
  53:C:\users\brian\.platformio\packages\framework-arduinoteensy\libraries\Audio\mixer.cpp **** 	const uint32_t *end = (uint32_t *)(data + AUDIO_BLOCK_SAMPLES);
  54:C:\users\brian\.platformio\packages\framework-arduinoteensy\libraries\Audio\mixer.cpp **** 
  55:C:\users\brian\.platformio\packages\framework-arduinoteensy\libraries\Audio\mixer.cpp **** 	if (mult == MULTI_UNITYGAIN) {
  56:C:\users\brian\.platformio\packages\framework-arduinoteensy\libraries\Audio\mixer.cpp **** 		do {
  57:C:\users\brian\.platformio\packages\framework-arduinoteensy\libraries\Audio\mixer.cpp **** 			uint32_t tmp32 = *dst;
  58:C:\users\brian\.platformio\packages\framework-arduinoteensy\libraries\Audio\mixer.cpp **** 			*dst++ = signed_add_16_and_16(tmp32, *src++);
  59:C:\users\brian\.platformio\packages\framework-arduinoteensy\libraries\Audio\mixer.cpp **** 			tmp32 = *dst;
  60:C:\users\brian\.platformio\packages\framework-arduinoteensy\libraries\Audio\mixer.cpp **** 			*dst++ = signed_add_16_and_16(tmp32, *src++);
  61:C:\users\brian\.platformio\packages\framework-arduinoteensy\libraries\Audio\mixer.cpp **** 		} while (dst < end);
  62:C:\users\brian\.platformio\packages\framework-arduinoteensy\libraries\Audio\mixer.cpp **** 	} else {
  63:C:\users\brian\.platformio\packages\framework-arduinoteensy\libraries\Audio\mixer.cpp **** 		do {
  64:C:\users\brian\.platformio\packages\framework-arduinoteensy\libraries\Audio\mixer.cpp **** 			uint32_t tmp32 = *src++; // read 2 samples from *data
  65:C:\users\brian\.platformio\packages\framework-arduinoteensy\libraries\Audio\mixer.cpp **** 			int32_t val1 = signed_multiply_32x16b(mult, tmp32);
  66:C:\users\brian\.platformio\packages\framework-arduinoteensy\libraries\Audio\mixer.cpp **** 			int32_t val2 = signed_multiply_32x16t(mult, tmp32);
  67:C:\users\brian\.platformio\packages\framework-arduinoteensy\libraries\Audio\mixer.cpp **** 			val1 = signed_saturate_rshift(val1, 16, 0);
  68:C:\users\brian\.platformio\packages\framework-arduinoteensy\libraries\Audio\mixer.cpp **** 			val2 = signed_saturate_rshift(val2, 16, 0);
  69:C:\users\brian\.platformio\packages\framework-arduinoteensy\libraries\Audio\mixer.cpp **** 			tmp32 = pack_16b_16b(val2, val1);
  70:C:\users\brian\.platformio\packages\framework-arduinoteensy\libraries\Audio\mixer.cpp **** 			uint32_t tmp32b = *dst;
  71:C:\users\brian\.platformio\packages\framework-arduinoteensy\libraries\Audio\mixer.cpp **** 			*dst++ = signed_add_16_and_16(tmp32, tmp32b);
  72:C:\users\brian\.platformio\packages\framework-arduinoteensy\libraries\Audio\mixer.cpp **** 		} while (dst < end);
  73:C:\users\brian\.platformio\packages\framework-arduinoteensy\libraries\Audio\mixer.cpp **** 	}
  74:C:\users\brian\.platformio\packages\framework-arduinoteensy\libraries\Audio\mixer.cpp **** }
  75:C:\users\brian\.platformio\packages\framework-arduinoteensy\libraries\Audio\mixer.cpp **** 
  76:C:\users\brian\.platformio\packages\framework-arduinoteensy\libraries\Audio\mixer.cpp **** #elif defined(KINETISL)
  77:C:\users\brian\.platformio\packages\framework-arduinoteensy\libraries\Audio\mixer.cpp **** #define MULTI_UNITYGAIN 256
  78:C:\users\brian\.platformio\packages\framework-arduinoteensy\libraries\Audio\mixer.cpp **** 
  79:C:\users\brian\.platformio\packages\framework-arduinoteensy\libraries\Audio\mixer.cpp **** static void applyGain(int16_t *data, int32_t mult)
  80:C:\users\brian\.platformio\packages\framework-arduinoteensy\libraries\Audio\mixer.cpp **** {
  81:C:\users\brian\.platformio\packages\framework-arduinoteensy\libraries\Audio\mixer.cpp **** 	const int16_t *end = data + AUDIO_BLOCK_SAMPLES;
  82:C:\users\brian\.platformio\packages\framework-arduinoteensy\libraries\Audio\mixer.cpp **** 
  83:C:\users\brian\.platformio\packages\framework-arduinoteensy\libraries\Audio\mixer.cpp **** 	do {
  84:C:\users\brian\.platformio\packages\framework-arduinoteensy\libraries\Audio\mixer.cpp **** 		int32_t val = *data * mult;
  85:C:\users\brian\.platformio\packages\framework-arduinoteensy\libraries\Audio\mixer.cpp **** 		*data++ = signed_saturate_rshift(val, 16, 0);
  86:C:\users\brian\.platformio\packages\framework-arduinoteensy\libraries\Audio\mixer.cpp **** 	} while (data < end);
  87:C:\users\brian\.platformio\packages\framework-arduinoteensy\libraries\Audio\mixer.cpp **** }
  88:C:\users\brian\.platformio\packages\framework-arduinoteensy\libraries\Audio\mixer.cpp **** 
  89:C:\users\brian\.platformio\packages\framework-arduinoteensy\libraries\Audio\mixer.cpp **** static void applyGainThenAdd(int16_t *dst, const int16_t *src, int32_t mult)
  90:C:\users\brian\.platformio\packages\framework-arduinoteensy\libraries\Audio\mixer.cpp **** {
  91:C:\users\brian\.platformio\packages\framework-arduinoteensy\libraries\Audio\mixer.cpp **** 	const int16_t *end = dst + AUDIO_BLOCK_SAMPLES;
  92:C:\users\brian\.platformio\packages\framework-arduinoteensy\libraries\Audio\mixer.cpp **** 
  93:C:\users\brian\.platformio\packages\framework-arduinoteensy\libraries\Audio\mixer.cpp **** 	if (mult == MULTI_UNITYGAIN) {
  94:C:\users\brian\.platformio\packages\framework-arduinoteensy\libraries\Audio\mixer.cpp **** 		do {
  95:C:\users\brian\.platformio\packages\framework-arduinoteensy\libraries\Audio\mixer.cpp **** 			int32_t val = *dst + *src++;
  96:C:\users\brian\.platformio\packages\framework-arduinoteensy\libraries\Audio\mixer.cpp **** 			*dst++ = signed_saturate_rshift(val, 16, 0);
  97:C:\users\brian\.platformio\packages\framework-arduinoteensy\libraries\Audio\mixer.cpp **** 		} while (dst < end);
  98:C:\users\brian\.platformio\packages\framework-arduinoteensy\libraries\Audio\mixer.cpp **** 	} else {
  99:C:\users\brian\.platformio\packages\framework-arduinoteensy\libraries\Audio\mixer.cpp **** 		do {
 100:C:\users\brian\.platformio\packages\framework-arduinoteensy\libraries\Audio\mixer.cpp **** 			int32_t val = *dst + ((*src++ * mult) >> 8); // overflow possible??
 101:C:\users\brian\.platformio\packages\framework-arduinoteensy\libraries\Audio\mixer.cpp **** 			*dst++ = signed_saturate_rshift(val, 16, 0);
 102:C:\users\brian\.platformio\packages\framework-arduinoteensy\libraries\Audio\mixer.cpp **** 		} while (dst < end);
 103:C:\users\brian\.platformio\packages\framework-arduinoteensy\libraries\Audio\mixer.cpp **** 	}
 104:C:\users\brian\.platformio\packages\framework-arduinoteensy\libraries\Audio\mixer.cpp **** }
 105:C:\users\brian\.platformio\packages\framework-arduinoteensy\libraries\Audio\mixer.cpp **** 
 106:C:\users\brian\.platformio\packages\framework-arduinoteensy\libraries\Audio\mixer.cpp **** #endif
 107:C:\users\brian\.platformio\packages\framework-arduinoteensy\libraries\Audio\mixer.cpp **** 
 108:C:\users\brian\.platformio\packages\framework-arduinoteensy\libraries\Audio\mixer.cpp **** void AudioMixer4::update(void)
 109:C:\users\brian\.platformio\packages\framework-arduinoteensy\libraries\Audio\mixer.cpp **** {
  29              		.loc 1 109 0
  30              		.cfi_startproc
  31              		@ args = 0, pretend = 0, frame = 0
  32              		@ frame_needed = 0, uses_anonymous_args = 0
  33              	.LVL0:
  34 0000 2DE9F843 		push	{r3, r4, r5, r6, r7, r8, r9, lr}
  35              		.cfi_def_cfa_offset 32
  36              		.cfi_offset 3, -32
  37              		.cfi_offset 4, -28
  38              		.cfi_offset 5, -24
  39              		.cfi_offset 6, -20
  40              		.cfi_offset 7, -16
  41              		.cfi_offset 8, -12
  42              		.cfi_offset 9, -8
  43              		.cfi_offset 14, -4
  44              	.LBB132:
 110:C:\users\brian\.platformio\packages\framework-arduinoteensy\libraries\Audio\mixer.cpp **** 	audio_block_t *in, *out=NULL;
 111:C:\users\brian\.platformio\packages\framework-arduinoteensy\libraries\Audio\mixer.cpp **** 	unsigned int channel;
 112:C:\users\brian\.platformio\packages\framework-arduinoteensy\libraries\Audio\mixer.cpp **** 
 113:C:\users\brian\.platformio\packages\framework-arduinoteensy\libraries\Audio\mixer.cpp **** 	for (channel=0; channel < 4; channel++) {
  45              		.loc 1 113 0
  46 0004 4FF00008 		mov	r8, #0
  47              	.LBE132:
 109:C:\users\brian\.platformio\packages\framework-arduinoteensy\libraries\Audio\mixer.cpp **** 	audio_block_t *in, *out=NULL;
  48              		.loc 1 109 0
  49 0008 0646     		mov	r6, r0
  50 000a 00F12405 		add	r5, r0, #36
 110:C:\users\brian\.platformio\packages\framework-arduinoteensy\libraries\Audio\mixer.cpp **** 	audio_block_t *in, *out=NULL;
  51              		.loc 1 110 0
  52 000e 4746     		mov	r7, r8
  53              	.LVL1:
  54              	.L9:
  55              	.LBB179:
  56              	.LBB133:
  57              	.LBB134:
 114:C:\users\brian\.platformio\packages\framework-arduinoteensy\libraries\Audio\mixer.cpp **** 		if (!out) {
 115:C:\users\brian\.platformio\packages\framework-arduinoteensy\libraries\Audio\mixer.cpp **** 			out = receiveWritable(channel);
  58              		.loc 1 115 0
  59 0010 4146     		mov	r1, r8
  60 0012 3046     		mov	r0, r6
  61              	.LBE134:
 114:C:\users\brian\.platformio\packages\framework-arduinoteensy\libraries\Audio\mixer.cpp **** 		if (!out) {
  62              		.loc 1 114 0
  63 0014 002F     		cmp	r7, #0
  64 0016 4DD0     		beq	.L24
  65              	.LVL2:
 116:C:\users\brian\.platformio\packages\framework-arduinoteensy\libraries\Audio\mixer.cpp **** 			if (out) {
 117:C:\users\brian\.platformio\packages\framework-arduinoteensy\libraries\Audio\mixer.cpp **** 				int32_t mult = multiplier[channel];
 118:C:\users\brian\.platformio\packages\framework-arduinoteensy\libraries\Audio\mixer.cpp **** 				if (mult != MULTI_UNITYGAIN) applyGain(out->data, mult);
 119:C:\users\brian\.platformio\packages\framework-arduinoteensy\libraries\Audio\mixer.cpp **** 			}
 120:C:\users\brian\.platformio\packages\framework-arduinoteensy\libraries\Audio\mixer.cpp **** 		} else {
 121:C:\users\brian\.platformio\packages\framework-arduinoteensy\libraries\Audio\mixer.cpp **** 			in = receiveReadOnly(channel);
  66              		.loc 1 121 0
  67 0018 FFF7FEFF 		bl	_ZN11AudioStream15receiveReadOnlyEj
  68              	.LVL3:
 122:C:\users\brian\.platformio\packages\framework-arduinoteensy\libraries\Audio\mixer.cpp **** 			if (in) {
  69              		.loc 1 122 0
  70 001c E8B1     		cbz	r0, .L3
 123:C:\users\brian\.platformio\packages\framework-arduinoteensy\libraries\Audio\mixer.cpp **** 				applyGainThenAdd(out->data, in->data, multiplier[channel]);
  71              		.loc 1 123 0
  72 001e 2C68     		ldr	r4, [r5]
  73 0020 391D     		adds	r1, r7, #4
  74              	.LVL4:
  75 0022 00F1040E 		add	lr, r0, #4
  76              	.LVL5:
  77              	.LBB150:
  78              	.LBB151:
  53:C:\users\brian\.platformio\packages\framework-arduinoteensy\libraries\Audio\mixer.cpp **** 
  79              		.loc 1 53 0
  80 0026 07F5827C 		add	ip, r7, #260
  81              	.LVL6:
  82              	.LBB152:
  55:C:\users\brian\.platformio\packages\framework-arduinoteensy\libraries\Audio\mixer.cpp **** 		do {
  83              		.loc 1 55 0
  84 002a B4F5803F 		cmp	r4, #65536
  85 002e 26D0     		beq	.L25
  86              	.L8:
  87              	.LVL7:
  88              	.LBB153:
  89              	.LBB154:
  64:C:\users\brian\.platformio\packages\framework-arduinoteensy\libraries\Audio\mixer.cpp **** 			int32_t val1 = signed_multiply_32x16b(mult, tmp32);
  90              		.loc 1 64 0
  91 0030 5EF8042B 		ldr	r2, [lr], #4
  92              	.LVL8:
  93              	.LBB155:
  94              	.LBB156:
  95              		.file 2 "C:\\users\\brian\\.platformio\\packages\\framework-arduinoteensy\\libraries\\Audio\\utili
   1:C:\users\brian\.platformio\packages\framework-arduinoteensy\libraries\Audio\utility\dspinst.h **** /* Audio Library for Teensy 3.X
   2:C:\users\brian\.platformio\packages\framework-arduinoteensy\libraries\Audio\utility\dspinst.h ****  * Copyright (c) 2014, Paul Stoffregen, paul@pjrc.com
   3:C:\users\brian\.platformio\packages\framework-arduinoteensy\libraries\Audio\utility\dspinst.h ****  *
   4:C:\users\brian\.platformio\packages\framework-arduinoteensy\libraries\Audio\utility\dspinst.h ****  * Development of this audio library was funded by PJRC.COM, LLC by sales of
   5:C:\users\brian\.platformio\packages\framework-arduinoteensy\libraries\Audio\utility\dspinst.h ****  * Teensy and Audio Adaptor boards.  Please support PJRC's efforts to develop
   6:C:\users\brian\.platformio\packages\framework-arduinoteensy\libraries\Audio\utility\dspinst.h ****  * open source software by purchasing Teensy or other PJRC products.
   7:C:\users\brian\.platformio\packages\framework-arduinoteensy\libraries\Audio\utility\dspinst.h ****  *
   8:C:\users\brian\.platformio\packages\framework-arduinoteensy\libraries\Audio\utility\dspinst.h ****  * Permission is hereby granted, free of charge, to any person obtaining a copy
   9:C:\users\brian\.platformio\packages\framework-arduinoteensy\libraries\Audio\utility\dspinst.h ****  * of this software and associated documentation files (the "Software"), to deal
  10:C:\users\brian\.platformio\packages\framework-arduinoteensy\libraries\Audio\utility\dspinst.h ****  * in the Software without restriction, including without limitation the rights
  11:C:\users\brian\.platformio\packages\framework-arduinoteensy\libraries\Audio\utility\dspinst.h ****  * to use, copy, modify, merge, publish, distribute, sublicense, and/or sell
  12:C:\users\brian\.platformio\packages\framework-arduinoteensy\libraries\Audio\utility\dspinst.h ****  * copies of the Software, and to permit persons to whom the Software is
  13:C:\users\brian\.platformio\packages\framework-arduinoteensy\libraries\Audio\utility\dspinst.h ****  * furnished to do so, subject to the following conditions:
  14:C:\users\brian\.platformio\packages\framework-arduinoteensy\libraries\Audio\utility\dspinst.h ****  *
  15:C:\users\brian\.platformio\packages\framework-arduinoteensy\libraries\Audio\utility\dspinst.h ****  * The above copyright notice, development funding notice, and this permission
  16:C:\users\brian\.platformio\packages\framework-arduinoteensy\libraries\Audio\utility\dspinst.h ****  * notice shall be included in all copies or substantial portions of the Software.
  17:C:\users\brian\.platformio\packages\framework-arduinoteensy\libraries\Audio\utility\dspinst.h ****  *
  18:C:\users\brian\.platformio\packages\framework-arduinoteensy\libraries\Audio\utility\dspinst.h ****  * THE SOFTWARE IS PROVIDED "AS IS", WITHOUT WARRANTY OF ANY KIND, EXPRESS OR
  19:C:\users\brian\.platformio\packages\framework-arduinoteensy\libraries\Audio\utility\dspinst.h ****  * IMPLIED, INCLUDING BUT NOT LIMITED TO THE WARRANTIES OF MERCHANTABILITY,
  20:C:\users\brian\.platformio\packages\framework-arduinoteensy\libraries\Audio\utility\dspinst.h ****  * FITNESS FOR A PARTICULAR PURPOSE AND NONINFRINGEMENT. IN NO EVENT SHALL THE
  21:C:\users\brian\.platformio\packages\framework-arduinoteensy\libraries\Audio\utility\dspinst.h ****  * AUTHORS OR COPYRIGHT HOLDERS BE LIABLE FOR ANY CLAIM, DAMAGES OR OTHER
  22:C:\users\brian\.platformio\packages\framework-arduinoteensy\libraries\Audio\utility\dspinst.h ****  * LIABILITY, WHETHER IN AN ACTION OF CONTRACT, TORT OR OTHERWISE, ARISING FROM,
  23:C:\users\brian\.platformio\packages\framework-arduinoteensy\libraries\Audio\utility\dspinst.h ****  * OUT OF OR IN CONNECTION WITH THE SOFTWARE OR THE USE OR OTHER DEALINGS IN
  24:C:\users\brian\.platformio\packages\framework-arduinoteensy\libraries\Audio\utility\dspinst.h ****  * THE SOFTWARE.
  25:C:\users\brian\.platformio\packages\framework-arduinoteensy\libraries\Audio\utility\dspinst.h ****  */
  26:C:\users\brian\.platformio\packages\framework-arduinoteensy\libraries\Audio\utility\dspinst.h **** 
  27:C:\users\brian\.platformio\packages\framework-arduinoteensy\libraries\Audio\utility\dspinst.h **** #ifndef dspinst_h_
  28:C:\users\brian\.platformio\packages\framework-arduinoteensy\libraries\Audio\utility\dspinst.h **** #define dspinst_h_
  29:C:\users\brian\.platformio\packages\framework-arduinoteensy\libraries\Audio\utility\dspinst.h **** 
  30:C:\users\brian\.platformio\packages\framework-arduinoteensy\libraries\Audio\utility\dspinst.h **** #include <stdint.h>
  31:C:\users\brian\.platformio\packages\framework-arduinoteensy\libraries\Audio\utility\dspinst.h **** 
  32:C:\users\brian\.platformio\packages\framework-arduinoteensy\libraries\Audio\utility\dspinst.h **** // computes limit((val >> rshift), 2**bits)
  33:C:\users\brian\.platformio\packages\framework-arduinoteensy\libraries\Audio\utility\dspinst.h **** static inline int32_t signed_saturate_rshift(int32_t val, int bits, int rshift) __attribute__((alwa
  34:C:\users\brian\.platformio\packages\framework-arduinoteensy\libraries\Audio\utility\dspinst.h **** static inline int32_t signed_saturate_rshift(int32_t val, int bits, int rshift)
  35:C:\users\brian\.platformio\packages\framework-arduinoteensy\libraries\Audio\utility\dspinst.h **** {
  36:C:\users\brian\.platformio\packages\framework-arduinoteensy\libraries\Audio\utility\dspinst.h **** #if defined (__ARM_ARCH_7EM__)
  37:C:\users\brian\.platformio\packages\framework-arduinoteensy\libraries\Audio\utility\dspinst.h **** 	int32_t out;
  38:C:\users\brian\.platformio\packages\framework-arduinoteensy\libraries\Audio\utility\dspinst.h **** 	asm volatile("ssat %0, %1, %2, asr %3" : "=r" (out) : "I" (bits), "r" (val), "I" (rshift));
  39:C:\users\brian\.platformio\packages\framework-arduinoteensy\libraries\Audio\utility\dspinst.h **** 	return out;
  40:C:\users\brian\.platformio\packages\framework-arduinoteensy\libraries\Audio\utility\dspinst.h **** #elif defined(KINETISL)
  41:C:\users\brian\.platformio\packages\framework-arduinoteensy\libraries\Audio\utility\dspinst.h **** 	int32_t out, max;
  42:C:\users\brian\.platformio\packages\framework-arduinoteensy\libraries\Audio\utility\dspinst.h **** 	out = val >> rshift;
  43:C:\users\brian\.platformio\packages\framework-arduinoteensy\libraries\Audio\utility\dspinst.h **** 	max = 1 << (bits - 1);
  44:C:\users\brian\.platformio\packages\framework-arduinoteensy\libraries\Audio\utility\dspinst.h **** 	if (out >= 0) {
  45:C:\users\brian\.platformio\packages\framework-arduinoteensy\libraries\Audio\utility\dspinst.h **** 		if (out > max - 1) out = max - 1;
  46:C:\users\brian\.platformio\packages\framework-arduinoteensy\libraries\Audio\utility\dspinst.h **** 	} else {
  47:C:\users\brian\.platformio\packages\framework-arduinoteensy\libraries\Audio\utility\dspinst.h **** 		if (out < -max) out = -max;
  48:C:\users\brian\.platformio\packages\framework-arduinoteensy\libraries\Audio\utility\dspinst.h **** 	}
  49:C:\users\brian\.platformio\packages\framework-arduinoteensy\libraries\Audio\utility\dspinst.h **** 	return out;
  50:C:\users\brian\.platformio\packages\framework-arduinoteensy\libraries\Audio\utility\dspinst.h **** #endif
  51:C:\users\brian\.platformio\packages\framework-arduinoteensy\libraries\Audio\utility\dspinst.h **** }
  52:C:\users\brian\.platformio\packages\framework-arduinoteensy\libraries\Audio\utility\dspinst.h **** 
  53:C:\users\brian\.platformio\packages\framework-arduinoteensy\libraries\Audio\utility\dspinst.h **** // computes limit(val, 2**bits)
  54:C:\users\brian\.platformio\packages\framework-arduinoteensy\libraries\Audio\utility\dspinst.h **** static inline int16_t saturate16(int32_t val) __attribute__((always_inline, unused));
  55:C:\users\brian\.platformio\packages\framework-arduinoteensy\libraries\Audio\utility\dspinst.h **** static inline int16_t saturate16(int32_t val)
  56:C:\users\brian\.platformio\packages\framework-arduinoteensy\libraries\Audio\utility\dspinst.h **** {
  57:C:\users\brian\.platformio\packages\framework-arduinoteensy\libraries\Audio\utility\dspinst.h **** #if defined (__ARM_ARCH_7EM__)
  58:C:\users\brian\.platformio\packages\framework-arduinoteensy\libraries\Audio\utility\dspinst.h **** 	int16_t out;
  59:C:\users\brian\.platformio\packages\framework-arduinoteensy\libraries\Audio\utility\dspinst.h **** 	int32_t tmp;
  60:C:\users\brian\.platformio\packages\framework-arduinoteensy\libraries\Audio\utility\dspinst.h **** 	asm volatile("ssat %0, %1, %2" : "=r" (tmp) : "I" (16), "r" (val) );
  61:C:\users\brian\.platformio\packages\framework-arduinoteensy\libraries\Audio\utility\dspinst.h **** 	out = (int16_t) (tmp & 0xffff); // not sure if the & 0xffff is necessary. test.
  62:C:\users\brian\.platformio\packages\framework-arduinoteensy\libraries\Audio\utility\dspinst.h **** 	return out;
  63:C:\users\brian\.platformio\packages\framework-arduinoteensy\libraries\Audio\utility\dspinst.h **** #elif defined(KINETISL)
  64:C:\users\brian\.platformio\packages\framework-arduinoteensy\libraries\Audio\utility\dspinst.h **** 	return 0; // TODO....
  65:C:\users\brian\.platformio\packages\framework-arduinoteensy\libraries\Audio\utility\dspinst.h **** #endif
  66:C:\users\brian\.platformio\packages\framework-arduinoteensy\libraries\Audio\utility\dspinst.h **** }
  67:C:\users\brian\.platformio\packages\framework-arduinoteensy\libraries\Audio\utility\dspinst.h **** 
  68:C:\users\brian\.platformio\packages\framework-arduinoteensy\libraries\Audio\utility\dspinst.h **** // computes ((a[31:0] * b[15:0]) >> 16)
  69:C:\users\brian\.platformio\packages\framework-arduinoteensy\libraries\Audio\utility\dspinst.h **** static inline int32_t signed_multiply_32x16b(int32_t a, uint32_t b) __attribute__((always_inline, u
  70:C:\users\brian\.platformio\packages\framework-arduinoteensy\libraries\Audio\utility\dspinst.h **** static inline int32_t signed_multiply_32x16b(int32_t a, uint32_t b)
  71:C:\users\brian\.platformio\packages\framework-arduinoteensy\libraries\Audio\utility\dspinst.h **** {
  72:C:\users\brian\.platformio\packages\framework-arduinoteensy\libraries\Audio\utility\dspinst.h **** #if defined (__ARM_ARCH_7EM__)
  73:C:\users\brian\.platformio\packages\framework-arduinoteensy\libraries\Audio\utility\dspinst.h **** 	int32_t out;
  74:C:\users\brian\.platformio\packages\framework-arduinoteensy\libraries\Audio\utility\dspinst.h **** 	asm volatile("smulwb %0, %1, %2" : "=r" (out) : "r" (a), "r" (b));
  96              		.loc 2 74 0
  97              		.syntax unified
  98              	@ 74 "C:\users\brian\.platformio\packages\framework-arduinoteensy\libraries\Audio\utility/dspinst.h
  99 0034 34FB02F3 		smulwb r3, r4, r2
 100              	@ 0 "" 2
 101              	.LVL9:
 102              		.thumb
 103              		.syntax unified
 104              	.LBE156:
 105              	.LBE155:
 106              	.LBB157:
 107              	.LBB158:
  75:C:\users\brian\.platformio\packages\framework-arduinoteensy\libraries\Audio\utility\dspinst.h **** 	return out;
  76:C:\users\brian\.platformio\packages\framework-arduinoteensy\libraries\Audio\utility\dspinst.h **** #elif defined(KINETISL)
  77:C:\users\brian\.platformio\packages\framework-arduinoteensy\libraries\Audio\utility\dspinst.h **** 	return ((int64_t)a * (int16_t)(b & 0xFFFF)) >> 16;
  78:C:\users\brian\.platformio\packages\framework-arduinoteensy\libraries\Audio\utility\dspinst.h **** #endif
  79:C:\users\brian\.platformio\packages\framework-arduinoteensy\libraries\Audio\utility\dspinst.h **** }
  80:C:\users\brian\.platformio\packages\framework-arduinoteensy\libraries\Audio\utility\dspinst.h **** 
  81:C:\users\brian\.platformio\packages\framework-arduinoteensy\libraries\Audio\utility\dspinst.h **** // computes ((a[31:0] * b[31:16]) >> 16)
  82:C:\users\brian\.platformio\packages\framework-arduinoteensy\libraries\Audio\utility\dspinst.h **** static inline int32_t signed_multiply_32x16t(int32_t a, uint32_t b) __attribute__((always_inline, u
  83:C:\users\brian\.platformio\packages\framework-arduinoteensy\libraries\Audio\utility\dspinst.h **** static inline int32_t signed_multiply_32x16t(int32_t a, uint32_t b)
  84:C:\users\brian\.platformio\packages\framework-arduinoteensy\libraries\Audio\utility\dspinst.h **** {
  85:C:\users\brian\.platformio\packages\framework-arduinoteensy\libraries\Audio\utility\dspinst.h **** #if defined (__ARM_ARCH_7EM__)
  86:C:\users\brian\.platformio\packages\framework-arduinoteensy\libraries\Audio\utility\dspinst.h **** 	int32_t out;
  87:C:\users\brian\.platformio\packages\framework-arduinoteensy\libraries\Audio\utility\dspinst.h **** 	asm volatile("smulwt %0, %1, %2" : "=r" (out) : "r" (a), "r" (b));
 108              		.loc 2 87 0
 109              		.syntax unified
 110              	@ 87 "C:\users\brian\.platformio\packages\framework-arduinoteensy\libraries\Audio\utility/dspinst.h
 111 0038 34FB12F9 		smulwt r9, r4, r2
 112              	@ 0 "" 2
 113              	.LVL10:
 114              		.thumb
 115              		.syntax unified
 116              	.LBE158:
 117              	.LBE157:
 118              	.LBB159:
 119              	.LBB160:
  38:C:\users\brian\.platformio\packages\framework-arduinoteensy\libraries\Audio\utility\dspinst.h **** 	return out;
 120              		.loc 2 38 0
 121              		.syntax unified
 122              	@ 38 "C:\users\brian\.platformio\packages\framework-arduinoteensy\libraries\Audio\utility/dspinst.h
 123 003c 03F30F02 		ssat r2, #16, r3, asr #0
 124              	@ 0 "" 2
 125              	.LVL11:
 126              		.thumb
 127              		.syntax unified
 128              	.LBE160:
 129              	.LBE159:
 130              	.LBB161:
 131              	.LBB162:
 132              		.syntax unified
 133              	@ 38 "C:\users\brian\.platformio\packages\framework-arduinoteensy\libraries\Audio\utility/dspinst.h
 134 0040 09F30F03 		ssat r3, #16, r9, asr #0
 135              	@ 0 "" 2
 136              	.LVL12:
 137              		.thumb
 138              		.syntax unified
 139              	.LBE162:
 140              	.LBE161:
 141              	.LBB163:
 142              	.LBB164:
  88:C:\users\brian\.platformio\packages\framework-arduinoteensy\libraries\Audio\utility\dspinst.h **** 	return out;
  89:C:\users\brian\.platformio\packages\framework-arduinoteensy\libraries\Audio\utility\dspinst.h **** #elif defined(KINETISL)
  90:C:\users\brian\.platformio\packages\framework-arduinoteensy\libraries\Audio\utility\dspinst.h **** 	return ((int64_t)a * (int16_t)(b >> 16)) >> 16;
  91:C:\users\brian\.platformio\packages\framework-arduinoteensy\libraries\Audio\utility\dspinst.h **** #endif
  92:C:\users\brian\.platformio\packages\framework-arduinoteensy\libraries\Audio\utility\dspinst.h **** }
  93:C:\users\brian\.platformio\packages\framework-arduinoteensy\libraries\Audio\utility\dspinst.h **** 
  94:C:\users\brian\.platformio\packages\framework-arduinoteensy\libraries\Audio\utility\dspinst.h **** // computes (((int64_t)a[31:0] * (int64_t)b[31:0]) >> 32)
  95:C:\users\brian\.platformio\packages\framework-arduinoteensy\libraries\Audio\utility\dspinst.h **** static inline int32_t multiply_32x32_rshift32(int32_t a, int32_t b) __attribute__((always_inline, u
  96:C:\users\brian\.platformio\packages\framework-arduinoteensy\libraries\Audio\utility\dspinst.h **** static inline int32_t multiply_32x32_rshift32(int32_t a, int32_t b)
  97:C:\users\brian\.platformio\packages\framework-arduinoteensy\libraries\Audio\utility\dspinst.h **** {
  98:C:\users\brian\.platformio\packages\framework-arduinoteensy\libraries\Audio\utility\dspinst.h **** #if defined (__ARM_ARCH_7EM__)
  99:C:\users\brian\.platformio\packages\framework-arduinoteensy\libraries\Audio\utility\dspinst.h **** 	int32_t out;
 100:C:\users\brian\.platformio\packages\framework-arduinoteensy\libraries\Audio\utility\dspinst.h **** 	asm volatile("smmul %0, %1, %2" : "=r" (out) : "r" (a), "r" (b));
 101:C:\users\brian\.platformio\packages\framework-arduinoteensy\libraries\Audio\utility\dspinst.h **** 	return out;
 102:C:\users\brian\.platformio\packages\framework-arduinoteensy\libraries\Audio\utility\dspinst.h **** #elif defined(KINETISL)
 103:C:\users\brian\.platformio\packages\framework-arduinoteensy\libraries\Audio\utility\dspinst.h **** 	return ((int64_t)a * (int64_t)b) >> 32;
 104:C:\users\brian\.platformio\packages\framework-arduinoteensy\libraries\Audio\utility\dspinst.h **** #endif
 105:C:\users\brian\.platformio\packages\framework-arduinoteensy\libraries\Audio\utility\dspinst.h **** }
 106:C:\users\brian\.platformio\packages\framework-arduinoteensy\libraries\Audio\utility\dspinst.h **** 
 107:C:\users\brian\.platformio\packages\framework-arduinoteensy\libraries\Audio\utility\dspinst.h **** // computes (((int64_t)a[31:0] * (int64_t)b[31:0] + 0x8000000) >> 32)
 108:C:\users\brian\.platformio\packages\framework-arduinoteensy\libraries\Audio\utility\dspinst.h **** static inline int32_t multiply_32x32_rshift32_rounded(int32_t a, int32_t b) __attribute__((always_i
 109:C:\users\brian\.platformio\packages\framework-arduinoteensy\libraries\Audio\utility\dspinst.h **** static inline int32_t multiply_32x32_rshift32_rounded(int32_t a, int32_t b)
 110:C:\users\brian\.platformio\packages\framework-arduinoteensy\libraries\Audio\utility\dspinst.h **** {
 111:C:\users\brian\.platformio\packages\framework-arduinoteensy\libraries\Audio\utility\dspinst.h **** #if defined (__ARM_ARCH_7EM__)
 112:C:\users\brian\.platformio\packages\framework-arduinoteensy\libraries\Audio\utility\dspinst.h **** 	int32_t out;
 113:C:\users\brian\.platformio\packages\framework-arduinoteensy\libraries\Audio\utility\dspinst.h **** 	asm volatile("smmulr %0, %1, %2" : "=r" (out) : "r" (a), "r" (b));
 114:C:\users\brian\.platformio\packages\framework-arduinoteensy\libraries\Audio\utility\dspinst.h **** 	return out;
 115:C:\users\brian\.platformio\packages\framework-arduinoteensy\libraries\Audio\utility\dspinst.h **** #elif defined(KINETISL)
 116:C:\users\brian\.platformio\packages\framework-arduinoteensy\libraries\Audio\utility\dspinst.h **** 	return (((int64_t)a * (int64_t)b) + 0x8000000) >> 32;
 117:C:\users\brian\.platformio\packages\framework-arduinoteensy\libraries\Audio\utility\dspinst.h **** #endif
 118:C:\users\brian\.platformio\packages\framework-arduinoteensy\libraries\Audio\utility\dspinst.h **** }
 119:C:\users\brian\.platformio\packages\framework-arduinoteensy\libraries\Audio\utility\dspinst.h **** 
 120:C:\users\brian\.platformio\packages\framework-arduinoteensy\libraries\Audio\utility\dspinst.h **** // computes sum + (((int64_t)a[31:0] * (int64_t)b[31:0] + 0x8000000) >> 32)
 121:C:\users\brian\.platformio\packages\framework-arduinoteensy\libraries\Audio\utility\dspinst.h **** static inline int32_t multiply_accumulate_32x32_rshift32_rounded(int32_t sum, int32_t a, int32_t b)
 122:C:\users\brian\.platformio\packages\framework-arduinoteensy\libraries\Audio\utility\dspinst.h **** static inline int32_t multiply_accumulate_32x32_rshift32_rounded(int32_t sum, int32_t a, int32_t b)
 123:C:\users\brian\.platformio\packages\framework-arduinoteensy\libraries\Audio\utility\dspinst.h **** {
 124:C:\users\brian\.platformio\packages\framework-arduinoteensy\libraries\Audio\utility\dspinst.h **** #if defined (__ARM_ARCH_7EM__)
 125:C:\users\brian\.platformio\packages\framework-arduinoteensy\libraries\Audio\utility\dspinst.h **** 	int32_t out;
 126:C:\users\brian\.platformio\packages\framework-arduinoteensy\libraries\Audio\utility\dspinst.h **** 	asm volatile("smmlar %0, %2, %3, %1" : "=r" (out) : "r" (sum), "r" (a), "r" (b));
 127:C:\users\brian\.platformio\packages\framework-arduinoteensy\libraries\Audio\utility\dspinst.h **** 	return out;
 128:C:\users\brian\.platformio\packages\framework-arduinoteensy\libraries\Audio\utility\dspinst.h **** #elif defined(KINETISL)
 129:C:\users\brian\.platformio\packages\framework-arduinoteensy\libraries\Audio\utility\dspinst.h **** 	return sum + ((((int64_t)a * (int64_t)b) + 0x8000000) >> 32);
 130:C:\users\brian\.platformio\packages\framework-arduinoteensy\libraries\Audio\utility\dspinst.h **** #endif
 131:C:\users\brian\.platformio\packages\framework-arduinoteensy\libraries\Audio\utility\dspinst.h **** }
 132:C:\users\brian\.platformio\packages\framework-arduinoteensy\libraries\Audio\utility\dspinst.h **** 
 133:C:\users\brian\.platformio\packages\framework-arduinoteensy\libraries\Audio\utility\dspinst.h **** // computes sum - (((int64_t)a[31:0] * (int64_t)b[31:0] + 0x8000000) >> 32)
 134:C:\users\brian\.platformio\packages\framework-arduinoteensy\libraries\Audio\utility\dspinst.h **** static inline int32_t multiply_subtract_32x32_rshift32_rounded(int32_t sum, int32_t a, int32_t b) _
 135:C:\users\brian\.platformio\packages\framework-arduinoteensy\libraries\Audio\utility\dspinst.h **** static inline int32_t multiply_subtract_32x32_rshift32_rounded(int32_t sum, int32_t a, int32_t b)
 136:C:\users\brian\.platformio\packages\framework-arduinoteensy\libraries\Audio\utility\dspinst.h **** {
 137:C:\users\brian\.platformio\packages\framework-arduinoteensy\libraries\Audio\utility\dspinst.h **** #if defined (__ARM_ARCH_7EM__)
 138:C:\users\brian\.platformio\packages\framework-arduinoteensy\libraries\Audio\utility\dspinst.h **** 	int32_t out;
 139:C:\users\brian\.platformio\packages\framework-arduinoteensy\libraries\Audio\utility\dspinst.h **** 	asm volatile("smmlsr %0, %2, %3, %1" : "=r" (out) : "r" (sum), "r" (a), "r" (b));
 140:C:\users\brian\.platformio\packages\framework-arduinoteensy\libraries\Audio\utility\dspinst.h **** 	return out;
 141:C:\users\brian\.platformio\packages\framework-arduinoteensy\libraries\Audio\utility\dspinst.h **** #elif defined(KINETISL)
 142:C:\users\brian\.platformio\packages\framework-arduinoteensy\libraries\Audio\utility\dspinst.h **** 	return sum - ((((int64_t)a * (int64_t)b) + 0x8000000) >> 32);
 143:C:\users\brian\.platformio\packages\framework-arduinoteensy\libraries\Audio\utility\dspinst.h **** #endif
 144:C:\users\brian\.platformio\packages\framework-arduinoteensy\libraries\Audio\utility\dspinst.h **** }
 145:C:\users\brian\.platformio\packages\framework-arduinoteensy\libraries\Audio\utility\dspinst.h **** 
 146:C:\users\brian\.platformio\packages\framework-arduinoteensy\libraries\Audio\utility\dspinst.h **** 
 147:C:\users\brian\.platformio\packages\framework-arduinoteensy\libraries\Audio\utility\dspinst.h **** // computes (a[31:16] | (b[31:16] >> 16))
 148:C:\users\brian\.platformio\packages\framework-arduinoteensy\libraries\Audio\utility\dspinst.h **** static inline uint32_t pack_16t_16t(int32_t a, int32_t b) __attribute__((always_inline, unused));
 149:C:\users\brian\.platformio\packages\framework-arduinoteensy\libraries\Audio\utility\dspinst.h **** static inline uint32_t pack_16t_16t(int32_t a, int32_t b)
 150:C:\users\brian\.platformio\packages\framework-arduinoteensy\libraries\Audio\utility\dspinst.h **** {
 151:C:\users\brian\.platformio\packages\framework-arduinoteensy\libraries\Audio\utility\dspinst.h **** #if defined (__ARM_ARCH_7EM__)
 152:C:\users\brian\.platformio\packages\framework-arduinoteensy\libraries\Audio\utility\dspinst.h **** 	int32_t out;
 153:C:\users\brian\.platformio\packages\framework-arduinoteensy\libraries\Audio\utility\dspinst.h **** 	asm volatile("pkhtb %0, %1, %2, asr #16" : "=r" (out) : "r" (a), "r" (b));
 154:C:\users\brian\.platformio\packages\framework-arduinoteensy\libraries\Audio\utility\dspinst.h **** 	return out;
 155:C:\users\brian\.platformio\packages\framework-arduinoteensy\libraries\Audio\utility\dspinst.h **** #elif defined(KINETISL)
 156:C:\users\brian\.platformio\packages\framework-arduinoteensy\libraries\Audio\utility\dspinst.h **** 	return (a & 0xFFFF0000) | ((uint32_t)b >> 16);
 157:C:\users\brian\.platformio\packages\framework-arduinoteensy\libraries\Audio\utility\dspinst.h **** #endif
 158:C:\users\brian\.platformio\packages\framework-arduinoteensy\libraries\Audio\utility\dspinst.h **** }
 159:C:\users\brian\.platformio\packages\framework-arduinoteensy\libraries\Audio\utility\dspinst.h **** 
 160:C:\users\brian\.platformio\packages\framework-arduinoteensy\libraries\Audio\utility\dspinst.h **** // computes (a[31:16] | b[15:0])
 161:C:\users\brian\.platformio\packages\framework-arduinoteensy\libraries\Audio\utility\dspinst.h **** static inline uint32_t pack_16t_16b(int32_t a, int32_t b) __attribute__((always_inline, unused));
 162:C:\users\brian\.platformio\packages\framework-arduinoteensy\libraries\Audio\utility\dspinst.h **** static inline uint32_t pack_16t_16b(int32_t a, int32_t b)
 163:C:\users\brian\.platformio\packages\framework-arduinoteensy\libraries\Audio\utility\dspinst.h **** {
 164:C:\users\brian\.platformio\packages\framework-arduinoteensy\libraries\Audio\utility\dspinst.h **** #if defined (__ARM_ARCH_7EM__)
 165:C:\users\brian\.platformio\packages\framework-arduinoteensy\libraries\Audio\utility\dspinst.h **** 	int32_t out;
 166:C:\users\brian\.platformio\packages\framework-arduinoteensy\libraries\Audio\utility\dspinst.h **** 	asm volatile("pkhtb %0, %1, %2" : "=r" (out) : "r" (a), "r" (b));
 167:C:\users\brian\.platformio\packages\framework-arduinoteensy\libraries\Audio\utility\dspinst.h **** 	return out;
 168:C:\users\brian\.platformio\packages\framework-arduinoteensy\libraries\Audio\utility\dspinst.h **** #elif defined(KINETISL)
 169:C:\users\brian\.platformio\packages\framework-arduinoteensy\libraries\Audio\utility\dspinst.h **** 	return (a & 0xFFFF0000) | (b & 0x0000FFFF);
 170:C:\users\brian\.platformio\packages\framework-arduinoteensy\libraries\Audio\utility\dspinst.h **** #endif
 171:C:\users\brian\.platformio\packages\framework-arduinoteensy\libraries\Audio\utility\dspinst.h **** }
 172:C:\users\brian\.platformio\packages\framework-arduinoteensy\libraries\Audio\utility\dspinst.h **** 
 173:C:\users\brian\.platformio\packages\framework-arduinoteensy\libraries\Audio\utility\dspinst.h **** // computes ((a[15:0] << 16) | b[15:0])
 174:C:\users\brian\.platformio\packages\framework-arduinoteensy\libraries\Audio\utility\dspinst.h **** static inline uint32_t pack_16b_16b(int32_t a, int32_t b) __attribute__((always_inline, unused));
 175:C:\users\brian\.platformio\packages\framework-arduinoteensy\libraries\Audio\utility\dspinst.h **** static inline uint32_t pack_16b_16b(int32_t a, int32_t b)
 176:C:\users\brian\.platformio\packages\framework-arduinoteensy\libraries\Audio\utility\dspinst.h **** {
 177:C:\users\brian\.platformio\packages\framework-arduinoteensy\libraries\Audio\utility\dspinst.h **** #if defined (__ARM_ARCH_7EM__)
 178:C:\users\brian\.platformio\packages\framework-arduinoteensy\libraries\Audio\utility\dspinst.h **** 	int32_t out;
 179:C:\users\brian\.platformio\packages\framework-arduinoteensy\libraries\Audio\utility\dspinst.h **** 	asm volatile("pkhbt %0, %1, %2, lsl #16" : "=r" (out) : "r" (b), "r" (a));
 143              		.loc 2 179 0
 144              		.syntax unified
 145              	@ 179 "C:\users\brian\.platformio\packages\framework-arduinoteensy\libraries\Audio\utility/dspinst.
 146 0044 C2EA0343 		pkhbt r3, r2, r3, lsl #16
 147              	@ 0 "" 2
 148              	.LVL13:
 149              		.thumb
 150              		.syntax unified
 151              	.LBE164:
 152              	.LBE163:
  70:C:\users\brian\.platformio\packages\framework-arduinoteensy\libraries\Audio\mixer.cpp **** 			*dst++ = signed_add_16_and_16(tmp32, tmp32b);
 153              		.loc 1 70 0
 154 0048 0A68     		ldr	r2, [r1]
 155              	.LVL14:
 156              	.LBB165:
 157              	.LBB166:
 180:C:\users\brian\.platformio\packages\framework-arduinoteensy\libraries\Audio\utility\dspinst.h **** 	return out;
 181:C:\users\brian\.platformio\packages\framework-arduinoteensy\libraries\Audio\utility\dspinst.h **** #elif defined(KINETISL)
 182:C:\users\brian\.platformio\packages\framework-arduinoteensy\libraries\Audio\utility\dspinst.h **** 	return (a << 16) | (b & 0x0000FFFF);
 183:C:\users\brian\.platformio\packages\framework-arduinoteensy\libraries\Audio\utility\dspinst.h **** #endif
 184:C:\users\brian\.platformio\packages\framework-arduinoteensy\libraries\Audio\utility\dspinst.h **** }
 185:C:\users\brian\.platformio\packages\framework-arduinoteensy\libraries\Audio\utility\dspinst.h **** 
 186:C:\users\brian\.platformio\packages\framework-arduinoteensy\libraries\Audio\utility\dspinst.h **** // computes ((a[15:0] << 16) | b[15:0])
 187:C:\users\brian\.platformio\packages\framework-arduinoteensy\libraries\Audio\utility\dspinst.h **** /*
 188:C:\users\brian\.platformio\packages\framework-arduinoteensy\libraries\Audio\utility\dspinst.h **** static inline uint32_t pack_16x16(int32_t a, int32_t b) __attribute__((always_inline, unused));
 189:C:\users\brian\.platformio\packages\framework-arduinoteensy\libraries\Audio\utility\dspinst.h **** static inline uint32_t pack_16x16(int32_t a, int32_t b)
 190:C:\users\brian\.platformio\packages\framework-arduinoteensy\libraries\Audio\utility\dspinst.h **** {
 191:C:\users\brian\.platformio\packages\framework-arduinoteensy\libraries\Audio\utility\dspinst.h **** 	int32_t out;
 192:C:\users\brian\.platformio\packages\framework-arduinoteensy\libraries\Audio\utility\dspinst.h **** 	asm volatile("pkhbt %0, %1, %2, lsl #16" : "=r" (out) : "r" (b), "r" (a));
 193:C:\users\brian\.platformio\packages\framework-arduinoteensy\libraries\Audio\utility\dspinst.h **** 	return out;
 194:C:\users\brian\.platformio\packages\framework-arduinoteensy\libraries\Audio\utility\dspinst.h **** }
 195:C:\users\brian\.platformio\packages\framework-arduinoteensy\libraries\Audio\utility\dspinst.h **** */
 196:C:\users\brian\.platformio\packages\framework-arduinoteensy\libraries\Audio\utility\dspinst.h **** 
 197:C:\users\brian\.platformio\packages\framework-arduinoteensy\libraries\Audio\utility\dspinst.h **** // computes (((a[31:16] + b[31:16]) << 16) | (a[15:0 + b[15:0]))  (saturates)
 198:C:\users\brian\.platformio\packages\framework-arduinoteensy\libraries\Audio\utility\dspinst.h **** static inline uint32_t signed_add_16_and_16(uint32_t a, uint32_t b) __attribute__((always_inline, u
 199:C:\users\brian\.platformio\packages\framework-arduinoteensy\libraries\Audio\utility\dspinst.h **** static inline uint32_t signed_add_16_and_16(uint32_t a, uint32_t b)
 200:C:\users\brian\.platformio\packages\framework-arduinoteensy\libraries\Audio\utility\dspinst.h **** {
 201:C:\users\brian\.platformio\packages\framework-arduinoteensy\libraries\Audio\utility\dspinst.h **** 	int32_t out;
 202:C:\users\brian\.platformio\packages\framework-arduinoteensy\libraries\Audio\utility\dspinst.h **** 	asm volatile("qadd16 %0, %1, %2" : "=r" (out) : "r" (a), "r" (b));
 158              		.loc 2 202 0
 159              		.syntax unified
 160              	@ 202 "C:\users\brian\.platformio\packages\framework-arduinoteensy\libraries\Audio\utility/dspinst.
 161 004a 93FA12F3 		qadd16 r3, r3, r2
 162              	@ 0 "" 2
 163              	.LVL15:
 164              		.thumb
 165              		.syntax unified
 166              	.LBE166:
 167              	.LBE165:
  71:C:\users\brian\.platformio\packages\framework-arduinoteensy\libraries\Audio\mixer.cpp **** 		} while (dst < end);
 168              		.loc 1 71 0
 169 004e 41F8043B 		str	r3, [r1], #4
 170              	.LVL16:
 171              	.LBE154:
  72:C:\users\brian\.platformio\packages\framework-arduinoteensy\libraries\Audio\mixer.cpp **** 	}
 172              		.loc 1 72 0
 173 0052 8C45     		cmp	ip, r1
 174 0054 ECD8     		bhi	.L8
 175              	.LVL17:
 176              	.L7:
 177              	.LBE153:
 178              	.LBE152:
 179              	.LBE151:
 180              	.LBE150:
 124:C:\users\brian\.platformio\packages\framework-arduinoteensy\libraries\Audio\mixer.cpp **** 				release(in);
 181              		.loc 1 124 0
 182 0056 FFF7FEFF 		bl	_ZN11AudioStream7releaseEP18audio_block_struct
 183              	.LVL18:
 184              	.L3:
 185              	.LBE133:
 113:C:\users\brian\.platformio\packages\framework-arduinoteensy\libraries\Audio\mixer.cpp **** 		if (!out) {
 186              		.loc 1 113 0 discriminator 2
 187 005a 08F10108 		add	r8, r8, #1
 188              	.LVL19:
 189 005e 0435     		adds	r5, r5, #4
 190 0060 B8F1040F 		cmp	r8, #4
 191 0064 D4D1     		bne	.L9
 192              	.LBE179:
 125:C:\users\brian\.platformio\packages\framework-arduinoteensy\libraries\Audio\mixer.cpp **** 			}
 126:C:\users\brian\.platformio\packages\framework-arduinoteensy\libraries\Audio\mixer.cpp **** 		}
 127:C:\users\brian\.platformio\packages\framework-arduinoteensy\libraries\Audio\mixer.cpp **** 	}
 128:C:\users\brian\.platformio\packages\framework-arduinoteensy\libraries\Audio\mixer.cpp **** 	if (out) {
 193              		.loc 1 128 0
 194 0066 002F     		cmp	r7, #0
 195 0068 40D0     		beq	.L1
 129:C:\users\brian\.platformio\packages\framework-arduinoteensy\libraries\Audio\mixer.cpp **** 		transmit(out);
 196              		.loc 1 129 0
 197 006a 3046     		mov	r0, r6
 198 006c 3946     		mov	r1, r7
 199 006e 0022     		movs	r2, #0
 200 0070 FFF7FEFF 		bl	_ZN11AudioStream8transmitEP18audio_block_structh
 201              	.LVL20:
 130:C:\users\brian\.platformio\packages\framework-arduinoteensy\libraries\Audio\mixer.cpp **** 		release(out);
 202              		.loc 1 130 0
 203 0074 3846     		mov	r0, r7
 131:C:\users\brian\.platformio\packages\framework-arduinoteensy\libraries\Audio\mixer.cpp **** 	}
 132:C:\users\brian\.platformio\packages\framework-arduinoteensy\libraries\Audio\mixer.cpp **** }
 204              		.loc 1 132 0
 205 0076 BDE8F843 		pop	{r3, r4, r5, r6, r7, r8, r9, lr}
 206              		.cfi_remember_state
 207              		.cfi_restore 14
 208              		.cfi_restore 9
 209              		.cfi_restore 8
 210              		.cfi_restore 7
 211              		.cfi_restore 6
 212              		.cfi_restore 5
 213              		.cfi_restore 4
 214              		.cfi_restore 3
 215              		.cfi_def_cfa_offset 0
 216              	.LVL21:
 130:C:\users\brian\.platformio\packages\framework-arduinoteensy\libraries\Audio\mixer.cpp **** 		release(out);
 217              		.loc 1 130 0
 218 007a FFF7FEBF 		b	_ZN11AudioStream7releaseEP18audio_block_struct
 219              	.LVL22:
 220              	.L25:
 221              		.cfi_restore_state
 222 007e 07F10C01 		add	r1, r7, #12
 223              	.LVL23:
 224 0082 00F10C04 		add	r4, r0, #12
 225              	.LVL24:
 226              	.L6:
 227              	.LBB180:
 228              	.LBB178:
 229              	.LBB176:
 230              	.LBB175:
 231              	.LBB174:
 232              	.LBB167:
 233              	.LBB168:
 234              	.LBB169:
 235              	.LBB170:
 236              		.loc 2 202 0
 237 0086 51F8083C 		ldr	r3, [r1, #-8]
 238 008a 54F8082C 		ldr	r2, [r4, #-8]
 239              		.syntax unified
 240              	@ 202 "C:\users\brian\.platformio\packages\framework-arduinoteensy\libraries\Audio\utility/dspinst.
 241 008e 93FA12F3 		qadd16 r3, r3, r2
 242              	@ 0 "" 2
 243              	.LVL25:
 244              		.thumb
 245              		.syntax unified
 246              	.LBE170:
 247              	.LBE169:
  58:C:\users\brian\.platformio\packages\framework-arduinoteensy\libraries\Audio\mixer.cpp **** 			tmp32 = *dst;
 248              		.loc 1 58 0
 249 0092 41F8083C 		str	r3, [r1, #-8]
 250              	.LVL26:
 251              	.LBB171:
 252              	.LBB172:
 253              		.loc 2 202 0
 254 0096 51F8043C 		ldr	r3, [r1, #-4]
 255 009a 54F8042C 		ldr	r2, [r4, #-4]
 256              		.syntax unified
 257              	@ 202 "C:\users\brian\.platformio\packages\framework-arduinoteensy\libraries\Audio\utility/dspinst.
 258 009e 93FA12F3 		qadd16 r3, r3, r2
 259              	@ 0 "" 2
 260              	.LVL27:
 261              		.thumb
 262              		.syntax unified
 263              	.LBE172:
 264              	.LBE171:
 265              	.LBE168:
  61:C:\users\brian\.platformio\packages\framework-arduinoteensy\libraries\Audio\mixer.cpp **** 	} else {
 266              		.loc 1 61 0
 267 00a2 8C45     		cmp	ip, r1
 268              	.LBB173:
  60:C:\users\brian\.platformio\packages\framework-arduinoteensy\libraries\Audio\mixer.cpp **** 		} while (dst < end);
 269              		.loc 1 60 0
 270 00a4 41F8043C 		str	r3, [r1, #-4]
 271              	.LVL28:
 272 00a8 04F10804 		add	r4, r4, #8
 273              	.LBE173:
  61:C:\users\brian\.platformio\packages\framework-arduinoteensy\libraries\Audio\mixer.cpp **** 	} else {
 274              		.loc 1 61 0
 275 00ac 01F10801 		add	r1, r1, #8
 276              	.LVL29:
 277 00b0 E9D8     		bhi	.L6
 278 00b2 D0E7     		b	.L7
 279              	.LVL30:
 280              	.L24:
 281              	.LBE167:
 282              	.LBE174:
 283              	.LBE175:
 284              	.LBE176:
 285              	.LBB177:
 115:C:\users\brian\.platformio\packages\framework-arduinoteensy\libraries\Audio\mixer.cpp **** 			if (out) {
 286              		.loc 1 115 0
 287 00b4 FFF7FEFF 		bl	_ZN11AudioStream15receiveWritableEj
 288              	.LVL31:
 289              	.LBB135:
 116:C:\users\brian\.platformio\packages\framework-arduinoteensy\libraries\Audio\mixer.cpp **** 				int32_t mult = multiplier[channel];
 290              		.loc 1 116 0
 291 00b8 0746     		mov	r7, r0
 292 00ba 0028     		cmp	r0, #0
 293 00bc CDD0     		beq	.L3
 294              	.LBB136:
 117:C:\users\brian\.platformio\packages\framework-arduinoteensy\libraries\Audio\mixer.cpp **** 				if (mult != MULTI_UNITYGAIN) applyGain(out->data, mult);
 295              		.loc 1 117 0
 296 00be 2868     		ldr	r0, [r5]
 297              	.LVL32:
 118:C:\users\brian\.platformio\packages\framework-arduinoteensy\libraries\Audio\mixer.cpp **** 			}
 298              		.loc 1 118 0
 299 00c0 B0F5803F 		cmp	r0, #65536
 300 00c4 C9D0     		beq	.L3
 118:C:\users\brian\.platformio\packages\framework-arduinoteensy\libraries\Audio\mixer.cpp **** 			}
 301              		.loc 1 118 0 is_stmt 0 discriminator 1
 302 00c6 391D     		adds	r1, r7, #4
 303              	.LVL33:
 304              	.LBB137:
 305              	.LBB138:
  37:C:\users\brian\.platformio\packages\framework-arduinoteensy\libraries\Audio\mixer.cpp **** 
 306              		.loc 1 37 0 is_stmt 1 discriminator 1
 307 00c8 07F58274 		add	r4, r7, #260
 308              	.LVL34:
 309              	.L4:
 310              	.LBB139:
  40:C:\users\brian\.platformio\packages\framework-arduinoteensy\libraries\Audio\mixer.cpp **** 		int32_t val1 = signed_multiply_32x16b(mult, tmp32);
 311              		.loc 1 40 0
 312 00cc 0B68     		ldr	r3, [r1]
 313              	.LVL35:
 314              	.LBB140:
 315              	.LBB141:
  74:C:\users\brian\.platformio\packages\framework-arduinoteensy\libraries\Audio\utility\dspinst.h **** 	return out;
 316              		.loc 2 74 0
 317              		.syntax unified
 318              	@ 74 "C:\users\brian\.platformio\packages\framework-arduinoteensy\libraries\Audio\utility/dspinst.h
 319 00ce 30FB03F2 		smulwb r2, r0, r3
 320              	@ 0 "" 2
 321              	.LVL36:
 322              		.thumb
 323              		.syntax unified
 324              	.LBE141:
 325              	.LBE140:
 326              	.LBB142:
 327              	.LBB143:
  87:C:\users\brian\.platformio\packages\framework-arduinoteensy\libraries\Audio\utility\dspinst.h **** 	return out;
 328              		.loc 2 87 0
 329              		.syntax unified
 330              	@ 87 "C:\users\brian\.platformio\packages\framework-arduinoteensy\libraries\Audio\utility/dspinst.h
 331 00d2 30FB13F3 		smulwt r3, r0, r3
 332              	@ 0 "" 2
 333              	.LVL37:
 334              		.thumb
 335              		.syntax unified
 336              	.LBE143:
 337              	.LBE142:
 338              	.LBB144:
 339              	.LBB145:
  38:C:\users\brian\.platformio\packages\framework-arduinoteensy\libraries\Audio\utility\dspinst.h **** 	return out;
 340              		.loc 2 38 0
 341              		.syntax unified
 342              	@ 38 "C:\users\brian\.platformio\packages\framework-arduinoteensy\libraries\Audio\utility/dspinst.h
 343 00d6 02F30F02 		ssat r2, #16, r2, asr #0
 344              	@ 0 "" 2
 345              	.LVL38:
 346              		.thumb
 347              		.syntax unified
 348              	.LBE145:
 349              	.LBE144:
 350              	.LBB146:
 351              	.LBB147:
 352              		.syntax unified
 353              	@ 38 "C:\users\brian\.platformio\packages\framework-arduinoteensy\libraries\Audio\utility/dspinst.h
 354 00da 03F30F03 		ssat r3, #16, r3, asr #0
 355              	@ 0 "" 2
 356              	.LVL39:
 357              		.thumb
 358              		.syntax unified
 359              	.LBE147:
 360              	.LBE146:
 361              	.LBB148:
 362              	.LBB149:
 179:C:\users\brian\.platformio\packages\framework-arduinoteensy\libraries\Audio\utility\dspinst.h **** 	return out;
 363              		.loc 2 179 0
 364              		.syntax unified
 365              	@ 179 "C:\users\brian\.platformio\packages\framework-arduinoteensy\libraries\Audio\utility/dspinst.
 366 00de C2EA0343 		pkhbt r3, r2, r3, lsl #16
 367              	@ 0 "" 2
 368              		.thumb
 369              		.syntax unified
 370              	.LBE149:
 371              	.LBE148:
  45:C:\users\brian\.platformio\packages\framework-arduinoteensy\libraries\Audio\mixer.cpp **** 	} while (p < end);
 372              		.loc 1 45 0
 373 00e2 41F8043B 		str	r3, [r1], #4
 374              	.LVL40:
 375              	.LBE139:
  46:C:\users\brian\.platformio\packages\framework-arduinoteensy\libraries\Audio\mixer.cpp **** }
 376              		.loc 1 46 0
 377 00e6 8C42     		cmp	r4, r1
 378 00e8 F0D8     		bhi	.L4
 379 00ea B6E7     		b	.L3
 380              	.LVL41:
 381              	.L1:
 382 00ec BDE8F883 		pop	{r3, r4, r5, r6, r7, r8, r9, pc}
 383              	.LBE138:
 384              	.LBE137:
 385              	.LBE136:
 386              	.LBE135:
 387              	.LBE177:
 388              	.LBE178:
 389              	.LBE180:
 390              		.cfi_endproc
 391              	.LFE470:
 393              		.section	.text._ZN14AudioAmplifier6updateEv,"ax",%progbits
 394              		.align	2
 395              		.global	_ZN14AudioAmplifier6updateEv
 396              		.thumb
 397              		.thumb_func
 399              	_ZN14AudioAmplifier6updateEv:
 400              	.LFB471:
 133:C:\users\brian\.platformio\packages\framework-arduinoteensy\libraries\Audio\mixer.cpp **** 
 134:C:\users\brian\.platformio\packages\framework-arduinoteensy\libraries\Audio\mixer.cpp **** void AudioAmplifier::update(void)
 135:C:\users\brian\.platformio\packages\framework-arduinoteensy\libraries\Audio\mixer.cpp **** {
 401              		.loc 1 135 0
 402              		.cfi_startproc
 403              		@ args = 0, pretend = 0, frame = 0
 404              		@ frame_needed = 0, uses_anonymous_args = 0
 405              	.LVL42:
 406 0000 70B5     		push	{r4, r5, r6, lr}
 407              		.cfi_def_cfa_offset 16
 408              		.cfi_offset 4, -16
 409              		.cfi_offset 5, -12
 410              		.cfi_offset 6, -8
 411              		.cfi_offset 14, -4
 136:C:\users\brian\.platformio\packages\framework-arduinoteensy\libraries\Audio\mixer.cpp **** 	audio_block_t *block;
 137:C:\users\brian\.platformio\packages\framework-arduinoteensy\libraries\Audio\mixer.cpp **** 	int32_t mult = multiplier;
 412              		.loc 1 137 0
 413 0002 446A     		ldr	r4, [r0, #36]
 414              	.LVL43:
 138:C:\users\brian\.platformio\packages\framework-arduinoteensy\libraries\Audio\mixer.cpp **** 
 139:C:\users\brian\.platformio\packages\framework-arduinoteensy\libraries\Audio\mixer.cpp **** 	if (mult == 0) {
 415              		.loc 1 139 0
 416 0004 2CB3     		cbz	r4, .L42
 140:C:\users\brian\.platformio\packages\framework-arduinoteensy\libraries\Audio\mixer.cpp **** 		// zero gain, discard any input and transmit nothing
 141:C:\users\brian\.platformio\packages\framework-arduinoteensy\libraries\Audio\mixer.cpp **** 		block = receiveReadOnly(0);
 142:C:\users\brian\.platformio\packages\framework-arduinoteensy\libraries\Audio\mixer.cpp **** 		if (block) release(block);
 143:C:\users\brian\.platformio\packages\framework-arduinoteensy\libraries\Audio\mixer.cpp **** 	} else if (mult == MULTI_UNITYGAIN) {
 417              		.loc 1 143 0
 418 0006 B4F5803F 		cmp	r4, #65536
 419 000a 0646     		mov	r6, r0
 420              	.LBB209:
 421              	.LBB210:
 144:C:\users\brian\.platformio\packages\framework-arduinoteensy\libraries\Audio\mixer.cpp **** 		// unity gain, pass input to output without any change
 145:C:\users\brian\.platformio\packages\framework-arduinoteensy\libraries\Audio\mixer.cpp **** 		block = receiveReadOnly(0);
 422              		.loc 1 145 0
 423 000c 4FF00001 		mov	r1, #0
 424              	.LBE210:
 425              	.LBE209:
 143:C:\users\brian\.platformio\packages\framework-arduinoteensy\libraries\Audio\mixer.cpp **** 		// unity gain, pass input to output without any change
 426              		.loc 1 143 0
 427 0010 25D0     		beq	.L43
 146:C:\users\brian\.platformio\packages\framework-arduinoteensy\libraries\Audio\mixer.cpp **** 		if (block) {
 147:C:\users\brian\.platformio\packages\framework-arduinoteensy\libraries\Audio\mixer.cpp **** 			transmit(block);
 148:C:\users\brian\.platformio\packages\framework-arduinoteensy\libraries\Audio\mixer.cpp **** 			release(block);
 149:C:\users\brian\.platformio\packages\framework-arduinoteensy\libraries\Audio\mixer.cpp **** 		}
 150:C:\users\brian\.platformio\packages\framework-arduinoteensy\libraries\Audio\mixer.cpp **** 	} else {
 151:C:\users\brian\.platformio\packages\framework-arduinoteensy\libraries\Audio\mixer.cpp **** 		// apply gain to signal
 152:C:\users\brian\.platformio\packages\framework-arduinoteensy\libraries\Audio\mixer.cpp **** 		block = receiveWritable(0);
 428              		.loc 1 152 0
 429 0012 FFF7FEFF 		bl	_ZN11AudioStream15receiveWritableEj
 430              	.LVL44:
 153:C:\users\brian\.platformio\packages\framework-arduinoteensy\libraries\Audio\mixer.cpp **** 		if (block) {
 431              		.loc 1 153 0
 432 0016 0546     		mov	r5, r0
 433 0018 00B3     		cbz	r0, .L26
 154:C:\users\brian\.platformio\packages\framework-arduinoteensy\libraries\Audio\mixer.cpp **** 			applyGain(block->data, mult);
 434              		.loc 1 154 0
 435 001a 011D     		adds	r1, r0, #4
 436              	.LVL45:
 437              	.LBB213:
 438              	.LBB214:
  37:C:\users\brian\.platformio\packages\framework-arduinoteensy\libraries\Audio\mixer.cpp **** 
 439              		.loc 1 37 0
 440 001c 00F58270 		add	r0, r0, #260
 441              	.LVL46:
 442              	.L32:
 443              	.LBB215:
  40:C:\users\brian\.platformio\packages\framework-arduinoteensy\libraries\Audio\mixer.cpp **** 		int32_t val1 = signed_multiply_32x16b(mult, tmp32);
 444              		.loc 1 40 0
 445 0020 0B68     		ldr	r3, [r1]
 446              	.LVL47:
 447              	.LBB216:
 448              	.LBB217:
  74:C:\users\brian\.platformio\packages\framework-arduinoteensy\libraries\Audio\utility\dspinst.h **** 	return out;
 449              		.loc 2 74 0
 450              		.syntax unified
 451              	@ 74 "C:\users\brian\.platformio\packages\framework-arduinoteensy\libraries\Audio\utility/dspinst.h
 452 0022 34FB03F2 		smulwb r2, r4, r3
 453              	@ 0 "" 2
 454              	.LVL48:
 455              		.thumb
 456              		.syntax unified
 457              	.LBE217:
 458              	.LBE216:
 459              	.LBB218:
 460              	.LBB219:
  87:C:\users\brian\.platformio\packages\framework-arduinoteensy\libraries\Audio\utility\dspinst.h **** 	return out;
 461              		.loc 2 87 0
 462              		.syntax unified
 463              	@ 87 "C:\users\brian\.platformio\packages\framework-arduinoteensy\libraries\Audio\utility/dspinst.h
 464 0026 34FB13F3 		smulwt r3, r4, r3
 465              	@ 0 "" 2
 466              	.LVL49:
 467              		.thumb
 468              		.syntax unified
 469              	.LBE219:
 470              	.LBE218:
 471              	.LBB220:
 472              	.LBB221:
  38:C:\users\brian\.platformio\packages\framework-arduinoteensy\libraries\Audio\utility\dspinst.h **** 	return out;
 473              		.loc 2 38 0
 474              		.syntax unified
 475              	@ 38 "C:\users\brian\.platformio\packages\framework-arduinoteensy\libraries\Audio\utility/dspinst.h
 476 002a 02F30F02 		ssat r2, #16, r2, asr #0
 477              	@ 0 "" 2
 478              	.LVL50:
 479              		.thumb
 480              		.syntax unified
 481              	.LBE221:
 482              	.LBE220:
 483              	.LBB222:
 484              	.LBB223:
 485              		.syntax unified
 486              	@ 38 "C:\users\brian\.platformio\packages\framework-arduinoteensy\libraries\Audio\utility/dspinst.h
 487 002e 03F30F03 		ssat r3, #16, r3, asr #0
 488              	@ 0 "" 2
 489              	.LVL51:
 490              		.thumb
 491              		.syntax unified
 492              	.LBE223:
 493              	.LBE222:
 494              	.LBB224:
 495              	.LBB225:
 179:C:\users\brian\.platformio\packages\framework-arduinoteensy\libraries\Audio\utility\dspinst.h **** 	return out;
 496              		.loc 2 179 0
 497              		.syntax unified
 498              	@ 179 "C:\users\brian\.platformio\packages\framework-arduinoteensy\libraries\Audio\utility/dspinst.
 499 0032 C2EA0343 		pkhbt r3, r2, r3, lsl #16
 500              	@ 0 "" 2
 501              		.thumb
 502              		.syntax unified
 503              	.LBE225:
 504              	.LBE224:
  45:C:\users\brian\.platformio\packages\framework-arduinoteensy\libraries\Audio\mixer.cpp **** 	} while (p < end);
 505              		.loc 1 45 0
 506 0036 41F8043B 		str	r3, [r1], #4
 507              	.LVL52:
 508              	.LBE215:
  46:C:\users\brian\.platformio\packages\framework-arduinoteensy\libraries\Audio\mixer.cpp **** }
 509              		.loc 1 46 0
 510 003a 8842     		cmp	r0, r1
 511 003c F0D8     		bhi	.L32
 512              	.LVL53:
 513              	.LBE214:
 514              	.LBE213:
 155:C:\users\brian\.platformio\packages\framework-arduinoteensy\libraries\Audio\mixer.cpp **** 			transmit(block);
 515              		.loc 1 155 0
 516 003e 3046     		mov	r0, r6
 517 0040 0022     		movs	r2, #0
 518 0042 2946     		mov	r1, r5
 519              	.LVL54:
 520 0044 FFF7FEFF 		bl	_ZN11AudioStream8transmitEP18audio_block_structh
 521              	.LVL55:
 156:C:\users\brian\.platformio\packages\framework-arduinoteensy\libraries\Audio\mixer.cpp **** 			release(block);
 522              		.loc 1 156 0
 523 0048 2846     		mov	r0, r5
 524              	.LVL56:
 525              	.L41:
 157:C:\users\brian\.platformio\packages\framework-arduinoteensy\libraries\Audio\mixer.cpp **** 		}
 158:C:\users\brian\.platformio\packages\framework-arduinoteensy\libraries\Audio\mixer.cpp **** 	}
 159:C:\users\brian\.platformio\packages\framework-arduinoteensy\libraries\Audio\mixer.cpp **** }
 526              		.loc 1 159 0
 527 004a BDE87040 		pop	{r4, r5, r6, lr}
 528              		.cfi_remember_state
 529              		.cfi_restore 14
 530              		.cfi_restore 6
 531              		.cfi_restore 5
 532              		.cfi_restore 4
 533              		.cfi_def_cfa_offset 0
 534              	.LVL57:
 156:C:\users\brian\.platformio\packages\framework-arduinoteensy\libraries\Audio\mixer.cpp **** 			release(block);
 535              		.loc 1 156 0
 536 004e FFF7FEBF 		b	_ZN11AudioStream7releaseEP18audio_block_struct
 537              	.LVL58:
 538              	.L42:
 539              		.cfi_restore_state
 141:C:\users\brian\.platformio\packages\framework-arduinoteensy\libraries\Audio\mixer.cpp **** 		if (block) release(block);
 540              		.loc 1 141 0
 541 0052 2146     		mov	r1, r4
 542 0054 FFF7FEFF 		bl	_ZN11AudioStream15receiveReadOnlyEj
 543              	.LVL59:
 142:C:\users\brian\.platformio\packages\framework-arduinoteensy\libraries\Audio\mixer.cpp **** 	} else if (mult == MULTI_UNITYGAIN) {
 544              		.loc 1 142 0
 545 0058 0028     		cmp	r0, #0
 546 005a F6D1     		bne	.L41
 547              	.LVL60:
 548              	.L26:
 549 005c 70BD     		pop	{r4, r5, r6, pc}
 550              	.LVL61:
 551              	.L43:
 552              	.LBB226:
 553              	.LBB211:
 145:C:\users\brian\.platformio\packages\framework-arduinoteensy\libraries\Audio\mixer.cpp **** 		if (block) {
 554              		.loc 1 145 0
 555 005e FFF7FEFF 		bl	_ZN11AudioStream15receiveReadOnlyEj
 556              	.LVL62:
 146:C:\users\brian\.platformio\packages\framework-arduinoteensy\libraries\Audio\mixer.cpp **** 			transmit(block);
 557              		.loc 1 146 0
 558 0062 0446     		mov	r4, r0
 559              	.LVL63:
 560 0064 0028     		cmp	r0, #0
 561 0066 F9D0     		beq	.L26
 147:C:\users\brian\.platformio\packages\framework-arduinoteensy\libraries\Audio\mixer.cpp **** 			release(block);
 562              		.loc 1 147 0
 563 0068 3046     		mov	r0, r6
 564              	.LVL64:
 565 006a 2146     		mov	r1, r4
 566 006c 0022     		movs	r2, #0
 567 006e FFF7FEFF 		bl	_ZN11AudioStream8transmitEP18audio_block_structh
 568              	.LVL65:
 148:C:\users\brian\.platformio\packages\framework-arduinoteensy\libraries\Audio\mixer.cpp **** 		}
 569              		.loc 1 148 0
 570 0072 2046     		mov	r0, r4
 571              	.LBE211:
 572              	.LBE226:
 573              		.loc 1 159 0
 574 0074 BDE87040 		pop	{r4, r5, r6, lr}
 575              		.cfi_restore 14
 576              		.cfi_restore 6
 577              		.cfi_restore 5
 578              		.cfi_restore 4
 579              		.cfi_def_cfa_offset 0
 580              	.LVL66:
 581              	.LBB227:
 582              	.LBB212:
 148:C:\users\brian\.platformio\packages\framework-arduinoteensy\libraries\Audio\mixer.cpp **** 		}
 583              		.loc 1 148 0
 584 0078 FFF7FEBF 		b	_ZN11AudioStream7releaseEP18audio_block_struct
 585              	.LVL67:
 586              	.LBE212:
 587              	.LBE227:
 588              		.cfi_endproc
 589              	.LFE471:
 591              		.global	_ZTV11AudioMixer4
 592              		.global	_ZTV14AudioAmplifier
 593              		.section	.rodata._ZTV14AudioAmplifier,"a",%progbits
 594              		.align	2
 597              	_ZTV14AudioAmplifier:
 598 0000 00000000 		.word	0
 599 0004 00000000 		.word	0
 600 0008 00000000 		.word	_ZN14AudioAmplifier6updateEv
 601              		.section	.rodata._ZTV11AudioMixer4,"a",%progbits
 602              		.align	2
 605              	_ZTV11AudioMixer4:
 606 0000 00000000 		.word	0
 607 0004 00000000 		.word	0
 608 0008 00000000 		.word	_ZN11AudioMixer46updateEv
 609              		.text
 610              	.Letext0:
 611              		.file 3 "c:\\users\\brian\\.platformio\\packages\\toolchain-gccarmnoneeabi\\arm-none-eabi\\include
 612              		.file 4 "c:\\users\\brian\\.platformio\\packages\\toolchain-gccarmnoneeabi\\arm-none-eabi\\include
 613              		.file 5 "C:\\users\\brian\\.platformio\\packages\\framework-arduinoteensy\\cores\\teensy4/pins_ard
 614              		.file 6 "c:\\users\\brian\\.platformio\\packages\\toolchain-gccarmnoneeabi\\arm-none-eabi\\include
 615              		.file 7 "lib\\Audio/AudioStream.h"
 616              		.file 8 "C:\\users\\brian\\.platformio\\packages\\framework-arduinoteensy\\libraries\\Audio\\mixer
 617              		.file 9 "c:\\users\\brian\\.platformio\\packages\\toolchain-gccarmnoneeabi\\arm-none-eabi\\include
 618              		.file 10 "C:\\users\\brian\\.platformio\\packages\\framework-arduinoteensy\\cores\\teensy4/imxrt.h
 619              		.file 11 "C:\\users\\brian\\.platformio\\packages\\framework-arduinoteensy\\cores\\teensy4/core_pi
 620              		.file 12 "C:\\users\\brian\\.platformio\\packages\\framework-arduinoteensy\\cores\\teensy4/usb_ser
 621              		.file 13 "C:\\users\\brian\\.platformio\\packages\\framework-arduinoteensy\\cores\\teensy4/Hardwar
 622              		.file 14 "<built-in>"
